; Function Attrs: mustprogress uwtable
define hidden void @_ZN4cvc58internal10IntBlaster6maxIntEj(ptr noalias sret(%"class.cvc5::internal::NodeTemplate") align 8 %agg.result, ptr nocapture noundef nonnull readonly align 8 dereferenceable(468) %this, i32 noundef %k) local_unnamed_addr #3 align 2 personality ptr @__gxx_personality_v0 {
entry:
  %max_value = alloca %"class.cvc5::internal::Rational", align 8
  %ref.tmp = alloca %"class.cvc5::internal::Rational", align 8
  %ref.tmp2 = alloca %"class.cvc5::internal::Rational", align 8
  call fastcc void @_ZN4cvc58internal12_GLOBAL__N_17intpow2Ej(ptr noalias nonnull align 8 %ref.tmp, i32 noundef %k)
  invoke void @_ZN4cvc58internal8RationalC2Ei(ptr noundef nonnull align 8 dereferenceable(32) %ref.tmp2, i32 noundef 1)
          to label %invoke.cont unwind label %lpad

invoke.cont:                                      ; preds = %entry
  invoke void @_ZNK4cvc58internal8RationalmiERKS1_(ptr nonnull sret(%"class.cvc5::internal::Rational") align 8 %max_value, ptr noundef nonnull align 8 dereferenceable(32) %ref.tmp, ptr noundef nonnull align 8 dereferenceable(32) %ref.tmp2)
          to label %invoke.cont4 unwind label %lpad3

invoke.cont4:                                     ; preds = %invoke.cont
  invoke void @__gmpq_clear(ptr noundef nonnull %ref.tmp2)
          to label %_ZN4cvc58internal8RationalD2Ev.exit unwind label %terminate.lpad.i.i

terminate.lpad.i.i:                               ; preds = %invoke.cont4
  %0 = landingpad { ptr, i32 }
          catch ptr null
  %1 = extractvalue { ptr, i32 } %0, 0
  call void @__clang_call_terminate(ptr %1) #22
  unreachable

_ZN4cvc58internal8RationalD2Ev.exit:              ; preds = %invoke.cont4
  invoke void @__gmpq_clear(ptr noundef nonnull %ref.tmp)
          to label %_ZN4cvc58internal8RationalD2Ev.exit5 unwind label %terminate.lpad.i.i4

terminate.lpad.i.i4:                              ; preds = %_ZN4cvc58internal8RationalD2Ev.exit
  %2 = landingpad { ptr, i32 }
          catch ptr null
  %3 = extractvalue { ptr, i32 } %2, 0
  call void @__clang_call_terminate(ptr %3) #22
  unreachable

_ZN4cvc58internal8RationalD2Ev.exit5:             ; preds = %_ZN4cvc58internal8RationalD2Ev.exit
  %d_nm = getelementptr inbounds i8, ptr %this, i64 240
  %4 = load ptr, ptr %d_nm, align 8
  invoke void @_ZN4cvc58internal11NodeManager10mkConstIntERKNS0_8RationalE(ptr sret(%"class.cvc5::internal::NodeTemplate") align 8 %agg.result, ptr noundef nonnull align 8 dereferenceable(3360) %4, ptr noundef nonnull align 8 dereferenceable(32) %max_value)
          to label %invoke.cont6 unwind label %lpad5

invoke.cont6:                                     ; preds = %_ZN4cvc58internal8RationalD2Ev.exit5
  invoke void @__gmpq_clear(ptr noundef nonnull %max_value)
          to label %_ZN4cvc58internal8RationalD2Ev.exit7 unwind label %terminate.lpad.i.i6

terminate.lpad.i.i6:                              ; preds = %invoke.cont6
  %5 = landingpad { ptr, i32 }
          catch ptr null
  %6 = extractvalue { ptr, i32 } %5, 0
  call void @__clang_call_terminate(ptr %6) #22
  unreachable

_ZN4cvc58internal8RationalD2Ev.exit7:             ; preds = %invoke.cont6
  ret void

lpad:                                             ; preds = %entry
  %7 = landingpad { ptr, i32 }
          cleanup
  br label %ehcleanup

lpad3:                                            ; preds = %invoke.cont
  %8 = landingpad { ptr, i32 }
          cleanup
  invoke void @__gmpq_clear(ptr noundef nonnull %ref.tmp2)
          to label %ehcleanup unwind label %terminate.lpad.i.i8

terminate.lpad.i.i8:                              ; preds = %lpad3
  %9 = landingpad { ptr, i32 }
          catch ptr null
  %10 = extractvalue { ptr, i32 } %9, 0
  call void @__clang_call_terminate(ptr %10) #22
  unreachable

ehcleanup:                                        ; preds = %lpad3, %lpad
  %.pn = phi { ptr, i32 } [ %7, %lpad ], [ %8, %lpad3 ]
  invoke void @__gmpq_clear(ptr noundef nonnull %ref.tmp)
          to label %eh.resume unwind label %terminate.lpad.i.i10

terminate.lpad.i.i10:                             ; preds = %ehcleanup
  %11 = landingpad { ptr, i32 }
          catch ptr null
  %12 = extractvalue { ptr, i32 } %11, 0
  call void @__clang_call_terminate(ptr %12) #22
  unreachable

lpad5:                                            ; preds = %_ZN4cvc58internal8RationalD2Ev.exit5
  %13 = landingpad { ptr, i32 }
          cleanup
  invoke void @__gmpq_clear(ptr noundef nonnull %max_value)
          to label %eh.resume unwind label %terminate.lpad.i.i12

terminate.lpad.i.i12:                             ; preds = %lpad5
  %14 = landingpad { ptr, i32 }
          catch ptr null
  %15 = extractvalue { ptr, i32 } %14, 0
  call void @__clang_call_terminate(ptr %15) #22
  unreachable

eh.resume:                                        ; preds = %lpad5, %ehcleanup
  %.pn2 = phi { ptr, i32 } [ %.pn, %ehcleanup ], [ %13, %lpad5 ]
  resume { ptr, i32 } %.pn2
}